target datalayout = "e-m:e-p270:32:32-p271:32:32-p272:64:64-i64:64-i128:128-f80:128-n8:16:32:64-S128"
target triple = "x86_64-pc-linux-gnu"

%struct.Saig_MvMan_t_ = type { ptr, i32, i32, i32, i32, ptr, ptr, ptr, ptr, ptr, i32, ptr, ptr, ptr, ptr, ptr, i32, [9 x i32], ptr, i32, i32, i32, ptr, i32, ptr }
%struct.Saig_MvAnd_t_ = type { i32, i32, i32 }

; Function Attrs: inlinehint nounwind uwtable
define internal i32 @Abc_MaxInt(i32 noundef %0, i32 noundef %1) #2 {
  %3 = alloca i32, align 4
  %4 = alloca i32, align 4
  store i32 %0, ptr %3, align 4, !tbaa !14
  store i32 %1, ptr %4, align 4, !tbaa !14
  %5 = load i32, ptr %3, align 4, !tbaa !14
  %6 = load i32, ptr %4, align 4, !tbaa !14
  %7 = icmp sgt i32 %5, %6
  br i1 %7, label %8, label %10

8:                                                ; preds = %2
  %9 = load i32, ptr %3, align 4, !tbaa !14
  br label %12

10:                                               ; preds = %2
  %11 = load i32, ptr %4, align 4, !tbaa !14
  br label %12

12:                                               ; preds = %10, %8
  %13 = phi i32 [ %9, %8 ], [ %11, %10 ]
  ret i32 %13
}

; Function Attrs: inlinehint nounwind uwtable
define internal i32 @Saig_MvLev(ptr noundef %0, i32 noundef %1) #2 {
  %3 = alloca ptr, align 8
  %4 = alloca i32, align 4
  store ptr %0, ptr %3, align 8, !tbaa !44
  store i32 %1, ptr %4, align 4, !tbaa !14
  %5 = load ptr, ptr %3, align 8, !tbaa !44
  %6 = getelementptr inbounds nuw %struct.Saig_MvMan_t_, ptr %5, i32 0, i32 24
  %7 = load ptr, ptr %6, align 8, !tbaa !69
  %8 = load i32, ptr %4, align 4, !tbaa !14
  %9 = ashr i32 %8, 1
  %10 = sext i32 %9 to i64
  %11 = getelementptr inbounds i8, ptr %7, i64 %10
  %12 = load i8, ptr %11, align 1, !tbaa !78
  %13 = zext i8 %12 to i32
  ret i32 %13
}

; Function Attrs: inlinehint nounwind uwtable
define internal i32 @Saig_MvCreateObj(ptr noundef %0, i32 noundef %1, i32 noundef %2) #2 {
  %4 = alloca ptr, align 8
  %5 = alloca i32, align 4
  %6 = alloca i32, align 4
  %7 = alloca ptr, align 8
  store ptr %0, ptr %4, align 8, !tbaa !44
  store i32 %1, ptr %5, align 4, !tbaa !14
  store i32 %2, ptr %6, align 4, !tbaa !14
  call void @llvm.lifetime.start.p0(i64 8, ptr %7) #11
  %8 = load ptr, ptr %4, align 8, !tbaa !44
  %9 = getelementptr inbounds nuw %struct.Saig_MvMan_t_, ptr %8, i32 0, i32 20
  %10 = load i32, ptr %9, align 4, !tbaa !72
  %11 = load ptr, ptr %4, align 8, !tbaa !44
  %12 = getelementptr inbounds nuw %struct.Saig_MvMan_t_, ptr %11, i32 0, i32 19
  %13 = load i32, ptr %12, align 8, !tbaa !65
  %14 = icmp eq i32 %10, %13
  br i1 %14, label %15, label %74

15:                                               ; preds = %3
  %16 = load ptr, ptr %4, align 8, !tbaa !44
  %17 = getelementptr inbounds nuw %struct.Saig_MvMan_t_, ptr %16, i32 0, i32 18
  %18 = load ptr, ptr %17, align 8, !tbaa !66
  %19 = icmp ne ptr %18, null
  br i1 %19, label %20, label %31

20:                                               ; preds = %15
  %21 = load ptr, ptr %4, align 8, !tbaa !44
  %22 = getelementptr inbounds nuw %struct.Saig_MvMan_t_, ptr %21, i32 0, i32 18
  %23 = load ptr, ptr %22, align 8, !tbaa !66
  %24 = load ptr, ptr %4, align 8, !tbaa !44
  %25 = getelementptr inbounds nuw %struct.Saig_MvMan_t_, ptr %24, i32 0, i32 19
  %26 = load i32, ptr %25, align 8, !tbaa !65
  %27 = mul nsw i32 2, %26
  %28 = sext i32 %27 to i64
  %29 = mul i64 12, %28
  %30 = call ptr @realloc(ptr noundef %23, i64 noundef %29) #14
  br label %39

31:                                               ; preds = %15
  %32 = load ptr, ptr %4, align 8, !tbaa !44
  %33 = getelementptr inbounds nuw %struct.Saig_MvMan_t_, ptr %32, i32 0, i32 19
  %34 = load i32, ptr %33, align 8, !tbaa !65
  %35 = mul nsw i32 2, %34
  %36 = sext i32 %35 to i64
  %37 = mul i64 12, %36
  %38 = call noalias ptr @malloc(i64 noundef %37) #13
  br label %39

39:                                               ; preds = %31, %20
  %40 = phi ptr [ %30, %20 ], [ %38, %31 ]
  %41 = load ptr, ptr %4, align 8, !tbaa !44
  %42 = getelementptr inbounds nuw %struct.Saig_MvMan_t_, ptr %41, i32 0, i32 18
  store ptr %40, ptr %42, align 8, !tbaa !66
  %43 = load ptr, ptr %4, align 8, !tbaa !44
  %44 = getelementptr inbounds nuw %struct.Saig_MvMan_t_, ptr %43, i32 0, i32 24
  %45 = load ptr, ptr %44, align 8, !tbaa !69
  %46 = icmp ne ptr %45, null
  br i1 %46, label %47, label %58

47:                                               ; preds = %39
  %48 = load ptr, ptr %4, align 8, !tbaa !44
  %49 = getelementptr inbounds nuw %struct.Saig_MvMan_t_, ptr %48, i32 0, i32 24
  %50 = load ptr, ptr %49, align 8, !tbaa !69
  %51 = load ptr, ptr %4, align 8, !tbaa !44
  %52 = getelementptr inbounds nuw %struct.Saig_MvMan_t_, ptr %51, i32 0, i32 19
  %53 = load i32, ptr %52, align 8, !tbaa !65
  %54 = mul nsw i32 2, %53
  %55 = sext i32 %54 to i64
  %56 = mul i64 1, %55
  %57 = call ptr @realloc(ptr noundef %50, i64 noundef %56) #14
  br label %66

58:                                               ; preds = %39
  %59 = load ptr, ptr %4, align 8, !tbaa !44
  %60 = getelementptr inbounds nuw %struct.Saig_MvMan_t_, ptr %59, i32 0, i32 19
  %61 = load i32, ptr %60, align 8, !tbaa !65
  %62 = mul nsw i32 2, %61
  %63 = sext i32 %62 to i64
  %64 = mul i64 1, %63
  %65 = call noalias ptr @malloc(i64 noundef %64) #13
  br label %66

66:                                               ; preds = %58, %47
  %67 = phi ptr [ %57, %47 ], [ %65, %58 ]
  %68 = load ptr, ptr %4, align 8, !tbaa !44
  %69 = getelementptr inbounds nuw %struct.Saig_MvMan_t_, ptr %68, i32 0, i32 24
  store ptr %67, ptr %69, align 8, !tbaa !69
  %70 = load ptr, ptr %4, align 8, !tbaa !44
  %71 = getelementptr inbounds nuw %struct.Saig_MvMan_t_, ptr %70, i32 0, i32 19
  %72 = load i32, ptr %71, align 8, !tbaa !65
  %73 = mul nsw i32 %72, 2
  store i32 %73, ptr %71, align 8, !tbaa !65
  br label %74

74:                                               ; preds = %66, %3
  %75 = load ptr, ptr %4, align 8, !tbaa !44
  %76 = getelementptr inbounds nuw %struct.Saig_MvMan_t_, ptr %75, i32 0, i32 18
  %77 = load ptr, ptr %76, align 8, !tbaa !66
  %78 = load ptr, ptr %4, align 8, !tbaa !44
  %79 = getelementptr inbounds nuw %struct.Saig_MvMan_t_, ptr %78, i32 0, i32 20
  %80 = load i32, ptr %79, align 4, !tbaa !72
  %81 = sext i32 %80 to i64
  %82 = getelementptr inbounds %struct.Saig_MvAnd_t_, ptr %77, i64 %81
  store ptr %82, ptr %7, align 8, !tbaa !73
  %83 = load i32, ptr %5, align 4, !tbaa !14
  %84 = load ptr, ptr %7, align 8, !tbaa !73
  %85 = getelementptr inbounds nuw %struct.Saig_MvAnd_t_, ptr %84, i32 0, i32 0
  store i32 %83, ptr %85, align 4, !tbaa !74
  %86 = load i32, ptr %6, align 4, !tbaa !14
  %87 = load ptr, ptr %7, align 8, !tbaa !73
  %88 = getelementptr inbounds nuw %struct.Saig_MvAnd_t_, ptr %87, i32 0, i32 1
  store i32 %86, ptr %88, align 4, !tbaa !76
  %89 = load ptr, ptr %7, align 8, !tbaa !73
  %90 = getelementptr inbounds nuw %struct.Saig_MvAnd_t_, ptr %89, i32 0, i32 2
  store i32 0, ptr %90, align 4, !tbaa !77
  %91 = load i32, ptr %5, align 4, !tbaa !14
  %92 = icmp ne i32 %91, 0
  br i1 %92, label %96, label %93

93:                                               ; preds = %74
  %94 = load i32, ptr %6, align 4, !tbaa !14
  %95 = icmp ne i32 %94, 0
  br i1 %95, label %96, label %114

96:                                               ; preds = %93, %74
  %97 = load ptr, ptr %4, align 8, !tbaa !44
  %98 = load i32, ptr %5, align 4, !tbaa !14
  %99 = call i32 @Saig_MvLev(ptr noundef %97, i32 noundef %98)
  %100 = load ptr, ptr %4, align 8, !tbaa !44
  %101 = load i32, ptr %6, align 4, !tbaa !14
  %102 = call i32 @Saig_MvLev(ptr noundef %100, i32 noundef %101)
  %103 = call i32 @Abc_MaxInt(i32 noundef %99, i32 noundef %102)
  %104 = add nsw i32 1, %103
  %105 = trunc i32 %104 to i8
  %106 = load ptr, ptr %4, align 8, !tbaa !44
  %107 = getelementptr inbounds nuw %struct.Saig_MvMan_t_, ptr %106, i32 0, i32 24
  %108 = load ptr, ptr %107, align 8, !tbaa !69
  %109 = load ptr, ptr %4, align 8, !tbaa !44
  %110 = getelementptr inbounds nuw %struct.Saig_MvMan_t_, ptr %109, i32 0, i32 20
  %111 = load i32, ptr %110, align 4, !tbaa !72
  %112 = sext i32 %111 to i64
  %113 = getelementptr inbounds i8, ptr %108, i64 %112
  store i8 %105, ptr %113, align 1, !tbaa !78
  br label %127

114:                                              ; preds = %93
  %115 = load ptr, ptr %4, align 8, !tbaa !44
  %116 = getelementptr inbounds nuw %struct.Saig_MvMan_t_, ptr %115, i32 0, i32 24
  %117 = load ptr, ptr %116, align 8, !tbaa !69
  %118 = load ptr, ptr %4, align 8, !tbaa !44
  %119 = getelementptr inbounds nuw %struct.Saig_MvMan_t_, ptr %118, i32 0, i32 20
  %120 = load i32, ptr %119, align 4, !tbaa !72
  %121 = sext i32 %120 to i64
  %122 = getelementptr inbounds i8, ptr %117, i64 %121
  store i8 0, ptr %122, align 1, !tbaa !78
  %123 = load ptr, ptr %4, align 8, !tbaa !44
  %124 = getelementptr inbounds nuw %struct.Saig_MvMan_t_, ptr %123, i32 0, i32 21
  %125 = load i32, ptr %124, align 8, !tbaa !79
  %126 = add nsw i32 %125, 1
  store i32 %126, ptr %124, align 8, !tbaa !79
  br label %127

127:                                              ; preds = %114, %96
  %128 = load ptr, ptr %4, align 8, !tbaa !44
  %129 = getelementptr inbounds nuw %struct.Saig_MvMan_t_, ptr %128, i32 0, i32 20
  %130 = load i32, ptr %129, align 4, !tbaa !72
  %131 = add nsw i32 %130, 1
  store i32 %131, ptr %129, align 4, !tbaa !72
  call void @llvm.lifetime.end.p0(i64 8, ptr %7) #11
  ret i32 %130
}