; Function Attrs: inlinehint mustprogress nounwind willreturn uwtable
define internal fastcc i32 @Saig_MvCreateObj(ptr noundef captures(none) %0, i32 noundef range(i32 -2147483648, 536870912) %1, i32 noundef range(i32 0, -2147483648) %2) unnamed_addr #6 {
  %4 = getelementptr inbounds nuw i8, ptr %0, i64 164
  %5 = load i32, ptr %4, align 4, !tbaa !67
  %6 = getelementptr inbounds nuw i8, ptr %0, i64 160
  %7 = load i32, ptr %6, align 8, !tbaa !62
  %8 = icmp eq i32 %5, %7
  br i1 %8, label %9, label %32

9:                                                ; preds = %3
  %10 = getelementptr inbounds nuw i8, ptr %0, i64 152
  %11 = load ptr, ptr %10, align 8, !tbaa !63
  %.not = icmp eq ptr %11, null
  %12 = shl nsw i32 %5, 1
  %13 = sext i32 %12 to i64
  %14 = mul nsw i64 %13, 12
  br i1 %.not, label %17, label %15

15:                                               ; preds = %9
  %16 = tail call ptr @realloc(ptr noundef nonnull %11, i64 noundef %14) #21
  br label %19

17:                                               ; preds = %9
  %18 = tail call noalias ptr @malloc(i64 noundef %14) #19
  br label %19

19:                                               ; preds = %17, %15
  %20 = phi ptr [ %16, %15 ], [ %18, %17 ]
  store ptr %20, ptr %10, align 8, !tbaa !63
  %21 = getelementptr inbounds nuw i8, ptr %0, i64 192
  %22 = load ptr, ptr %21, align 8, !tbaa !66
  %.not34 = icmp eq ptr %22, null
  %23 = load i32, ptr %6, align 8, !tbaa !62
  %24 = shl nsw i32 %23, 1
  %25 = sext i32 %24 to i64
  br i1 %.not34, label %28, label %26

26:                                               ; preds = %19
  %27 = tail call ptr @realloc(ptr noundef nonnull %22, i64 noundef %25) #21
  %.pre = load i32, ptr %6, align 8, !tbaa !62
  %.pre37 = shl nsw i32 %.pre, 1
  br label %30

28:                                               ; preds = %19
  %29 = tail call noalias ptr @malloc(i64 noundef %25) #19
  br label %30

30:                                               ; preds = %28, %26
  %.pre-phi = phi i32 [ %24, %28 ], [ %.pre37, %26 ]
  %31 = phi ptr [ %29, %28 ], [ %27, %26 ]
  store ptr %31, ptr %21, align 8, !tbaa !66
  store i32 %.pre-phi, ptr %6, align 8, !tbaa !62
  %.pre36 = load i32, ptr %4, align 4, !tbaa !67
  br label %32

32:                                               ; preds = %30, %3
  %33 = phi i32 [ %.pre36, %30 ], [ %5, %3 ]
  %34 = getelementptr inbounds nuw i8, ptr %0, i64 152
  %35 = load ptr, ptr %34, align 8, !tbaa !63
  %36 = sext i32 %33 to i64
  %37 = getelementptr inbounds %struct.Saig_MvAnd_t_, ptr %35, i64 %36
  store i32 %1, ptr %37, align 4, !tbaa !68
  %38 = getelementptr inbounds nuw i8, ptr %37, i64 4
  store i32 %2, ptr %38, align 4, !tbaa !70
  %39 = getelementptr inbounds nuw i8, ptr %37, i64 8
  store i32 0, ptr %39, align 4, !tbaa !71
  %40 = or i32 %2, %1
  %or.cond.not = icmp eq i32 %40, 0
  %41 = getelementptr i8, ptr %0, i64 192
  %42 = load ptr, ptr %41, align 8, !tbaa !66
  br i1 %or.cond.not, label %55, label %43

43:                                               ; preds = %32
  %44 = ashr i32 %1, 1
  %45 = sext i32 %44 to i64
  %46 = getelementptr inbounds i8, ptr %42, i64 %45
  %47 = load i8, ptr %46, align 1, !tbaa !28
  %48 = lshr i32 %2, 1
  %49 = zext nneg i32 %48 to i64
  %50 = getelementptr inbounds nuw i8, ptr %42, i64 %49
  %51 = load i8, ptr %50, align 1, !tbaa !28
  %52 = tail call i8 @llvm.umax.i8(i8 %47, i8 %51)
  %53 = add i8 %52, 1
  %54 = getelementptr inbounds i8, ptr %42, i64 %36
  store i8 %53, ptr %54, align 1, !tbaa !28
  br label %60

55:                                               ; preds = %32
  %56 = getelementptr inbounds i8, ptr %42, i64 %36
  store i8 0, ptr %56, align 1, !tbaa !28
  %57 = getelementptr inbounds nuw i8, ptr %0, i64 168
  %58 = load i32, ptr %57, align 8, !tbaa !72
  %59 = add nsw i32 %58, 1
  store i32 %59, ptr %57, align 8, !tbaa !72
  br label %60

60:                                               ; preds = %55, %43
  %61 = load i32, ptr %4, align 4, !tbaa !67
  %62 = add nsw i32 %61, 1
  store i32 %62, ptr %4, align 4, !tbaa !67
  ret i32 %61
}